(iNode
Node
p1
(dp2
S'leafValues'
p3
NsS'leftBranch'
p4
(iNode
Node
p5
(dp6
g3
Nsg4
(iNode
Node
p7
(dp8
g3
Nsg4
(iNode
Node
p9
(dp10
g3
Nsg4
(iNode
Node
p11
(dp12
g3
Nsg4
(iNode
Node
p13
(dp14
g3
Nsg4
(iNode
Node
p15
(dp16
g3
Nsg4
(iNode
Node
p17
(dp18
g3
Nsg4
(iNode
Node
p19
(dp20
g3
Nsg4
(iNode
Node
p21
(dp22
g3
Nsg4
(iNode
Node
p23
(dp24
g3
Nsg4
(iNode
Node
p25
(dp26
g3
Nsg4
(iNode
Node
p27
(dp28
g3
Nsg4
(iNode
Node
p29
(dp30
g3
Nsg4
(iNode
Node
p31
(dp32
g3
Nsg4
(iNode
Node
p33
(dp34
g3
Nsg4
(iNode
Node
p35
(dp36
g3
Nsg4
(iNode
Node
p37
(dp38
g3
Nsg4
(iNode
Node
p39
(dp40
g3
Nsg4
(iNode
Node
p41
(dp42
g3
Nsg4
(iNode
Node
p43
(dp44
g3
(dp45
S'POSITIVE'
p46
I531
sS'NEGATIVE'
p47
I761
ssg4
NsS'criteria'
p48
NsS'col'
p49
I-1
sS'rightBranch'
p50
Nsbsg48
I1
sg49
S'tracy'
p51
sg50
(iNode
Node
p52
(dp53
g3
(dp54
g46
I11
ssg4
Nsg48
Nsg49
I-1
sg50
Nsbsbsg48
I1
sg49
S'astounding'
p55
sg50
(iNode
Node
p56
(dp57
g3
(dp58
g46
I11
ssg4
Nsg48
Nsg49
I-1
sg50
Nsbsbsg48
I1
sg49
S'palpable'
p59
sg50
(iNode
Node
p60
(dp61
g3
(dp62
g46
I11
ssg4
Nsg48
Nsg49
I-1
sg50
Nsbsbsg48
I1
sg49
S'fascinated'
p63
sg50
(iNode
Node
p64
(dp65
g3
Nsg4
(iNode
Node
p66
(dp67
g3
(dp68
g46
I15
ssg4
Nsg48
Nsg49
I-1
sg50
Nsbsg48
I1
sg49
S'broiled'
p69
sg50
(iNode
Node
p70
(dp71
g3
(dp72
g47
I1
ssg4
Nsg48
Nsg49
I-1
sg50
Nsbsbsbsg48
I1
sg49
S'acceptance'
p73
sg50
(iNode
Node
p74
(dp75
g3
(dp76
g46
I12
ssg4
Nsg48
Nsg49
I-1
sg50
Nsbsbsg48
I1
sg49
S'gripping'
p77
sg50
(iNode
Node
p78
(dp79
g3
(dp80
g46
I12
ssg4
Nsg48
Nsg49
I-1
sg50
Nsbsbsg48
I1
sg49
S'leadership'
p81
sg50
(iNode
Node
p82
(dp83
g3
(dp84
g46
I12
ssg4
Nsg48
Nsg49
I-1
sg50
Nsbsbsg48
I1
sg49
S'admits'
p85
sg50
(iNode
Node
p86
(dp87
g3
Nsg4
(iNode
Node
p88
(dp89
g3
(dp90
g46
I17
ssg4
Nsg48
Nsg49
I-1
sg50
Nsbsg48
I1
sg49
S'padded'
p91
sg50
(iNode
Node
p92
(dp93
g3
(dp94
g47
I1
ssg4
Nsg48
Nsg49
I-1
sg50
Nsbsbsbsg48
I1
sg49
S'darker'
p95
sg50
(iNode
Node
p96
(dp97
g3
(dp98
g46
I13
ssg4
Nsg48
Nsg49
I-1
sg50
Nsbsbsg48
I1
sg49
S'reflection'
p99
sg50
(iNode
Node
p100
(dp101
g3
(dp102
g46
I13
ssg4
Nsg48
Nsg49
I-1
sg50
Nsbsbsg48
I1
sg49
S'delve'
p103
sg50
(iNode
Node
p104
(dp105
g3
(dp106
g46
I14
ssg4
Nsg48
Nsg49
I-1
sg50
Nsbsbsg48
I1
sg49
S'plant'
p107
sg50
(iNode
Node
p108
(dp109
g3
Nsg4
(iNode
Node
p110
(dp111
g3
(dp112
g47
I22
ssg4
Nsg48
Nsg49
I-1
sg50
Nsbsg48
I1
sg49
S'wiseguy'
p113
sg50
(iNode
Node
p114
(dp115
g3
(dp116
g46
I1
ssg4
Nsg48
Nsg49
I-1
sg50
Nsbsbsbsg48
I1
sg49
S'trait'
p117
sg50
(iNode
Node
p118
(dp119
g3
(dp120
g47
I17
ssg4
Nsg48
Nsg49
I-1
sg50
Nsbsbsg48
I1
sg49
S'NOTpast'
p121
sg50
(iNode
Node
p122
(dp123
g3
(dp124
g46
I14
ssg4
Nsg48
Nsg49
I-1
sg50
Nsbsbsg48
I1
sg49
S'dread'
p125
sg50
(iNode
Node
p126
(dp127
g3
(dp128
g46
I15
ssg4
Nsg48
Nsg49
I-1
sg50
Nsbsbsg48
I1
sg49
S'carnage'
p129
sg50
(iNode
Node
p130
(dp131
g3
(dp132
g47
I19
ssg4
Nsg48
Nsg49
I-1
sg50
Nsbsbsg48
I1
sg49
S'refreshingly'
p133
sg50
(iNode
Node
p134
(dp135
g3
(dp136
g46
I14
ssg4
Nsg48
Nsg49
I-1
sg50
Nsbsbsg48
I1
sg49
S'avoids'
p137
sg50
(iNode
Node
p138
(dp139
g3
(dp140
g46
I21
ssg4
Nsg48
Nsg49
I-1
sg50
Nsbsbsg48
I1
sg49
S'seamless'
p141
sg50
(iNode
Node
p142
(dp143
g3
(dp144
g46
I21
ssg4
Nsg48
Nsg49
I-1
sg50
Nsbsbsg48
I1
sg49
S'construction'
p145
sg50
(iNode
Node
p146
(dp147
g3
(dp148
g46
I21
ssg4
Nsg48
Nsg49
I-1
sg50
Nsbsb.