(iNode
Node
p1
(dp2
S'leafValues'
p3
NsS'leftBranch'
p4
(iNode
Node
p5
(dp6
g3
Nsg4
(iNode
Node
p7
(dp8
g3
Nsg4
(iNode
Node
p9
(dp10
g3
Nsg4
(iNode
Node
p11
(dp12
g3
Nsg4
(iNode
Node
p13
(dp14
g3
Nsg4
(iNode
Node
p15
(dp16
g3
Nsg4
(iNode
Node
p17
(dp18
g3
Nsg4
(iNode
Node
p19
(dp20
g3
Nsg4
(iNode
Node
p21
(dp22
g3
Nsg4
(iNode
Node
p23
(dp24
g3
Nsg4
(iNode
Node
p25
(dp26
g3
Nsg4
(iNode
Node
p27
(dp28
g3
Nsg4
(iNode
Node
p29
(dp30
g3
Nsg4
(iNode
Node
p31
(dp32
g3
Nsg4
(iNode
Node
p33
(dp34
g3
Nsg4
(iNode
Node
p35
(dp36
g3
Nsg4
(iNode
Node
p37
(dp38
g3
Nsg4
(iNode
Node
p39
(dp40
g3
Nsg4
(iNode
Node
p41
(dp42
g3
Nsg4
(iNode
Node
p43
(dp44
g3
(dp45
S'POSITIVE'
p46
I579
sS'NEGATIVE'
p47
I714
ssg4
NsS'criteria'
p48
NsS'col'
p49
I-1
sS'rightBranch'
p50
Nsbsg48
I1
sg49
S'boundaries'
p51
sg50
(iNode
Node
p52
(dp53
g3
(dp54
g46
I11
ssg4
Nsg48
Nsg49
I-1
sg50
Nsbsbsg48
I1
sg49
S'avoids'
p55
sg50
(iNode
Node
p56
(dp57
g3
Nsg4
(iNode
Node
p58
(dp59
g3
(dp60
g46
I15
ssg4
Nsg48
Nsg49
I-1
sg50
Nsbsg48
I1
sg49
S'NOTmess'
p61
sg50
(iNode
Node
p62
(dp63
g3
(dp64
g47
I1
ssg4
Nsg48
Nsg49
I-1
sg50
Nsbsbsbsg48
I1
sg49
S'NOTtypical'
p65
sg50
(iNode
Node
p66
(dp67
g3
(dp68
g46
I11
ssg4
Nsg48
Nsg49
I-1
sg50
Nsbsbsg48
I1
sg49
S'doubts'
p69
sg50
(iNode
Node
p70
(dp71
g3
(dp72
g46
I11
ssg4
Nsg48
Nsg49
I-1
sg50
Nsbsbsg48
I1
sg49
S'oldman'
p73
sg50
(iNode
Node
p74
(dp75
g3
(dp76
g47
I14
ssg4
Nsg48
Nsg49
I-1
sg50
Nsbsbsg48
I1
sg49
S'musicians'
p77
sg50
(iNode
Node
p78
(dp79
g3
(dp80
g46
I12
ssg4
Nsg48
Nsg49
I-1
sg50
Nsbsbsg48
I1
sg49
S'criticized'
p81
sg50
(iNode
Node
p82
(dp83
g3
(dp84
g46
I12
ssg4
Nsg48
Nsg49
I-1
sg50
Nsbsbsg48
I1
sg49
S'smiles'
p85
sg50
(iNode
Node
p86
(dp87
g3
(dp88
g46
I12
ssg4
Nsg48
Nsg49
I-1
sg50
Nsbsbsg48
I1
sg49
S'jumbled'
p89
sg50
(iNode
Node
p90
(dp91
g3
(dp92
g47
I15
ssg4
Nsg48
Nsg49
I-1
sg50
Nsbsbsg48
I1
sg49
S'schumacher'
p93
sg50
(iNode
Node
p94
(dp95
g3
(dp96
g47
I15
ssg4
Nsg48
Nsg49
I-1
sg50
Nsbsbsg48
I1
sg49
S'ineptitude'
p97
sg50
(iNode
Node
p98
(dp99
g3
(dp100
g47
I16
ssg4
Nsg48
Nsg49
I-1
sg50
Nsbsbsg48
I1
sg49
S'NOTminutes'
p101
sg50
(iNode
Node
p102
(dp103
g3
(dp104
g47
I16
ssg4
Nsg48
Nsg49
I-1
sg50
Nsbsbsg48
I1
sg49
S'slew'
p105
sg50
(iNode
Node
p106
(dp107
g3
(dp108
g47
I16
ssg4
Nsg48
Nsg49
I-1
sg50
Nsbsbsg48
I1
sg49
S'wondrous'
p109
sg50
(iNode
Node
p110
(dp111
g3
(dp112
g46
I13
ssg4
Nsg48
Nsg49
I-1
sg50
Nsbsbsg48
I1
sg49
S'delicious'
p113
sg50
(iNode
Node
p114
(dp115
g3
Nsg4
(iNode
Node
p116
(dp117
g3
(dp118
g46
I20
ssg4
Nsg48
Nsg49
I-1
sg50
Nsbsg48
I1
sg49
S'cooking'
p119
sg50
(iNode
Node
p120
(dp121
g3
(dp122
g47
I2
ssg4
Nsg48
Nsg49
I-1
sg50
Nsbsbsbsg48
I1
sg49
S'gattaca'
p123
sg50
(iNode
Node
p124
(dp125
g3
(dp126
g46
I14
ssg4
Nsg48
Nsg49
I-1
sg50
Nsbsbsg48
I1
sg49
S'lovingly'
p127
sg50
(iNode
Node
p128
(dp129
g3
(dp130
g46
I15
ssg4
Nsg48
Nsg49
I-1
sg50
Nsbsbsg48
I1
sg49
S'darker'
p131
sg50
(iNode
Node
p132
(dp133
g3
Nsg4
(iNode
Node
p134
(dp135
g3
(dp136
g46
I23
ssg4
Nsg48
Nsg49
I-1
sg50
Nsbsg48
I1
sg49
S'pimple'
p137
sg50
(iNode
Node
p138
(dp139
g3
(dp140
g47
I1
ssg4
Nsg48
Nsg49
I-1
sg50
Nsbsbsbsg48
I1
sg49
S'elliot'
p141
sg50
(iNode
Node
p142
(dp143
g3
(dp144
g46
I19
ssg4
Nsg48
Nsg49
I-1
sg50
Nsbsbsg48
I1
sg49
S'astounding'
p145
sg50
(iNode
Node
p146
(dp147
g3
(dp148
g46
I23
ssg4
Nsg48
Nsg49
I-1
sg50
Nsbsb.