(iNode
Node
p1
(dp2
S'leafValues'
p3
NsS'leftBranch'
p4
(iNode
Node
p5
(dp6
g3
Nsg4
(iNode
Node
p7
(dp8
g3
Nsg4
(iNode
Node
p9
(dp10
g3
Nsg4
(iNode
Node
p11
(dp12
g3
Nsg4
(iNode
Node
p13
(dp14
g3
Nsg4
(iNode
Node
p15
(dp16
g3
Nsg4
(iNode
Node
p17
(dp18
g3
Nsg4
(iNode
Node
p19
(dp20
g3
Nsg4
(iNode
Node
p21
(dp22
g3
Nsg4
(iNode
Node
p23
(dp24
g3
Nsg4
(iNode
Node
p25
(dp26
g3
Nsg4
(iNode
Node
p27
(dp28
g3
Nsg4
(iNode
Node
p29
(dp30
g3
Nsg4
(iNode
Node
p31
(dp32
g3
Nsg4
(iNode
Node
p33
(dp34
g3
Nsg4
(iNode
Node
p35
(dp36
g3
Nsg4
(iNode
Node
p37
(dp38
g3
Nsg4
(iNode
Node
p39
(dp40
g3
Nsg4
(iNode
Node
p41
(dp42
g3
Nsg4
(iNode
Node
p43
(dp44
g3
(dp45
S'POSITIVE'
p46
I584
sS'NEGATIVE'
p47
I701
ssg4
NsS'criteria'
p48
NsS'col'
p49
I-1
sS'rightBranch'
p50
Nsbsg48
I1
sg49
S'stretched'
p51
sg50
(iNode
Node
p52
(dp53
g3
(dp54
g47
I22
ssg4
Nsg48
Nsg49
I-1
sg50
Nsbsbsg48
I1
sg49
S'fascination'
p55
sg50
(iNode
Node
p56
(dp57
g3
(dp58
g46
I12
ssg4
Nsg48
Nsg49
I-1
sg50
Nsbsbsg48
I1
sg49
S'lovingly'
p59
sg50
(iNode
Node
p60
(dp61
g3
(dp62
g46
I12
ssg4
Nsg48
Nsg49
I-1
sg50
Nsbsbsg48
I1
sg49
S'scripted'
p63
sg50
(iNode
Node
p64
(dp65
g3
(dp66
g46
I12
ssg4
Nsg48
Nsg49
I-1
sg50
Nsbsbsg48
I1
sg49
S'worthless'
p67
sg50
(iNode
Node
p68
(dp69
g3
(dp70
g47
I17
ssg4
Nsg48
Nsg49
I-1
sg50
Nsbsbsg48
I1
sg49
S'admired'
p71
sg50
(iNode
Node
p72
(dp73
g3
(dp74
g46
I12
ssg4
Nsg48
Nsg49
I-1
sg50
Nsbsbsg48
I1
sg49
S'emperor'
p75
sg50
(iNode
Node
p76
(dp77
g3
(dp78
g46
I13
ssg4
Nsg48
Nsg49
I-1
sg50
Nsbsbsg48
I1
sg49
S'tobey'
p79
sg50
(iNode
Node
p80
(dp81
g3
(dp82
g46
I13
ssg4
Nsg48
Nsg49
I-1
sg50
Nsbsbsg48
I1
sg49
S'discussions'
p83
sg50
(iNode
Node
p84
(dp85
g3
(dp86
g46
I13
ssg4
Nsg48
Nsg49
I-1
sg50
Nsbsbsg48
I1
sg49
S'refreshingly'
p87
sg50
(iNode
Node
p88
(dp89
g3
(dp90
g46
I13
ssg4
Nsg48
Nsg49
I-1
sg50
Nsbsbsg48
I1
sg49
S'NOTtypical'
p91
sg50
(iNode
Node
p92
(dp93
g3
(dp94
g46
I13
ssg4
Nsg48
Nsg49
I-1
sg50
Nsbsbsg48
I1
sg49
S'losers'
p95
sg50
(iNode
Node
p96
(dp97
g3
(dp98
g47
I15
ssg4
Nsg48
Nsg49
I-1
sg50
Nsbsbsg48
I1
sg49
S'register'
p99
sg50
(iNode
Node
p100
(dp101
g3
(dp102
g47
I15
ssg4
Nsg48
Nsg49
I-1
sg50
Nsbsbsg48
I1
sg49
S'atrocious'
p103
sg50
(iNode
Node
p104
(dp105
g3
(dp106
g47
I16
ssg4
Nsg48
Nsg49
I-1
sg50
Nsbsbsg48
I1
sg49
S'incoherent'
p107
sg50
(iNode
Node
p108
(dp109
g3
(dp110
g47
I17
ssg4
Nsg48
Nsg49
I-1
sg50
Nsbsbsg48
I1
sg49
S'neurotic'
p111
sg50
(iNode
Node
p112
(dp113
g3
Nsg4
(iNode
Node
p114
(dp115
g3
Nsg4
(iNode
Node
p116
(dp117
g3
(dp118
g46
I22
ssg4
Nsg48
Nsg49
I-1
sg50
Nsbsg48
I1
sg49
S'marvel'
p119
sg50
(iNode
Node
p120
(dp121
g3
(dp122
g47
I1
ssg4
Nsg48
Nsg49
I-1
sg50
Nsbsbsg48
I1
sg49
S'abortion'
p123
sg50
(iNode
Node
p124
(dp125
g3
(dp126
g47
I1
ssg4
Nsg48
Nsg49
I-1
sg50
Nsbsbsbsg48
I1
sg49
S'addresses'
p127
sg50
(iNode
Node
p128
(dp129
g3
(dp130
g46
I17
ssg4
Nsg48
Nsg49
I-1
sg50
Nsbsbsg48
I1
sg49
S'avoids'
p131
sg50
(iNode
Node
p132
(dp133
g3
(dp134
g46
I18
ssg4
Nsg48
Nsg49
I-1
sg50
Nsbsbsg48
I1
sg49
S'gripping'
p135
sg50
(iNode
Node
p136
(dp137
g3
(dp138
g46
I19
ssg4
Nsg48
Nsg49
I-1
sg50
Nsbsbsg48
I1
sg49
S'astounding'
p139
sg50
(iNode
Node
p140
(dp141
g3
(dp142
g46
I22
ssg4
Nsg48
Nsg49
I-1
sg50
Nsbsb.