(iNode
Node
p1
(dp2
S'leafValues'
p3
NsS'leftBranch'
p4
(iNode
Node
p5
(dp6
g3
Nsg4
(iNode
Node
p7
(dp8
g3
Nsg4
(iNode
Node
p9
(dp10
g3
Nsg4
(iNode
Node
p11
(dp12
g3
Nsg4
(iNode
Node
p13
(dp14
g3
Nsg4
(iNode
Node
p15
(dp16
g3
Nsg4
(iNode
Node
p17
(dp18
g3
Nsg4
(iNode
Node
p19
(dp20
g3
Nsg4
(iNode
Node
p21
(dp22
g3
Nsg4
(iNode
Node
p23
(dp24
g3
Nsg4
(iNode
Node
p25
(dp26
g3
Nsg4
(iNode
Node
p27
(dp28
g3
Nsg4
(iNode
Node
p29
(dp30
g3
Nsg4
(iNode
Node
p31
(dp32
g3
Nsg4
(iNode
Node
p33
(dp34
g3
Nsg4
(iNode
Node
p35
(dp36
g3
Nsg4
(iNode
Node
p37
(dp38
g3
Nsg4
(iNode
Node
p39
(dp40
g3
Nsg4
(iNode
Node
p41
(dp42
g3
Nsg4
(iNode
Node
p43
(dp44
g3
(dp45
S'POSITIVE'
p46
I565
sS'NEGATIVE'
p47
I713
ssg4
NsS'criteria'
p48
NsS'col'
p49
I-1
sS'rightBranch'
p50
Nsbsg48
I1
sg49
S'NOTfamiliar'
p51
sg50
(iNode
Node
p52
(dp53
g3
(dp54
g46
I11
ssg4
Nsg48
Nsg49
I-1
sg50
Nsbsbsg48
I1
sg49
S'unorthodox'
p55
sg50
(iNode
Node
p56
(dp57
g3
Nsg4
(iNode
Node
p58
(dp59
g3
(dp60
g46
I15
ssg4
Nsg48
Nsg49
I-1
sg50
Nsbsg48
I1
sg49
S'discipline'
p61
sg50
(iNode
Node
p62
(dp63
g3
(dp64
g47
I1
ssg4
Nsg48
Nsg49
I-1
sg50
Nsbsbsbsg48
I1
sg49
S'rally'
p65
sg50
(iNode
Node
p66
(dp67
g3
(dp68
g46
I12
ssg4
Nsg48
Nsg49
I-1
sg50
Nsbsbsg48
I1
sg49
S'deeds'
p69
sg50
(iNode
Node
p70
(dp71
g3
(dp72
g46
I13
ssg4
Nsg48
Nsg49
I-1
sg50
Nsbsbsg48
I1
sg49
S'plight'
p73
sg50
(iNode
Node
p74
(dp75
g3
(dp76
g46
I14
ssg4
Nsg48
Nsg49
I-1
sg50
Nsbsbsg48
I1
sg49
S'emperor'
p77
sg50
(iNode
Node
p78
(dp79
g3
(dp80
g46
I15
ssg4
Nsg48
Nsg49
I-1
sg50
Nsbsbsg48
I1
sg49
S'wishing'
p81
sg50
(iNode
Node
p82
(dp83
g3
(dp84
g47
I16
ssg4
Nsg48
Nsg49
I-1
sg50
Nsbsbsg48
I1
sg49
S'gattaca'
p85
sg50
(iNode
Node
p86
(dp87
g3
(dp88
g46
I14
ssg4
Nsg48
Nsg49
I-1
sg50
Nsbsbsg48
I1
sg49
S'videotape'
p89
sg50
(iNode
Node
p90
(dp91
g3
(dp92
g46
I14
ssg4
Nsg48
Nsg49
I-1
sg50
Nsbsbsg48
I1
sg49
S'NOTtypical'
p93
sg50
(iNode
Node
p94
(dp95
g3
(dp96
g46
I14
ssg4
Nsg48
Nsg49
I-1
sg50
Nsbsbsg48
I1
sg49
S'unbearable'
p97
sg50
(iNode
Node
p98
(dp99
g3
Nsg4
(iNode
Node
p100
(dp101
g3
(dp102
g47
I22
ssg4
Nsg48
Nsg49
I-1
sg50
Nsbsg48
I1
sg49
S'misdemeanors'
p103
sg50
(iNode
Node
p104
(dp105
g3
(dp106
g46
I1
ssg4
Nsg48
Nsg49
I-1
sg50
Nsbsbsbsg48
I1
sg49
S'winslet'
p107
sg50
(iNode
Node
p108
(dp109
g3
(dp110
g46
I16
ssg4
Nsg48
Nsg49
I-1
sg50
Nsbsbsg48
I1
sg49
S'astounding'
p111
sg50
(iNode
Node
p112
(dp113
g3
(dp114
g46
I16
ssg4
Nsg48
Nsg49
I-1
sg50
Nsbsbsg48
I1
sg49
S'kidding'
p115
sg50
(iNode
Node
p116
(dp117
g3
(dp118
g47
I18
ssg4
Nsg48
Nsg49
I-1
sg50
Nsbsbsg48
I1
sg49
S'henstridge'
p119
sg50
(iNode
Node
p120
(dp121
g3
(dp122
g47
I19
ssg4
Nsg48
Nsg49
I-1
sg50
Nsbsbsg48
I1
sg49
S'elliot'
p123
sg50
(iNode
Node
p124
(dp125
g3
(dp126
g46
I17
ssg4
Nsg48
Nsg49
I-1
sg50
Nsbsbsg48
I1
sg49
S'francis'
p127
sg50
(iNode
Node
p128
(dp129
g3
(dp130
g46
I17
ssg4
Nsg48
Nsg49
I-1
sg50
Nsbsbsg48
I1
sg49
S'avoids'
p131
sg50
(iNode
Node
p132
(dp133
g3
(dp134
g46
I19
ssg4
Nsg48
Nsg49
I-1
sg50
Nsbsbsg48
I1
sg49
S'ideals'
p135
sg50
(iNode
Node
p136
(dp137
g3
(dp138
g46
I19
ssg4
Nsg48
Nsg49
I-1
sg50
Nsbsbsg48
I1
sg49
S'conveys'
p139
sg50
(iNode
Node
p140
(dp141
g3
(dp142
g46
I19
ssg4
Nsg48
Nsg49
I-1
sg50
Nsbsb.