(iNode
Node
p1
(dp2
S'leafValues'
p3
NsS'leftBranch'
p4
(iNode
Node
p5
(dp6
g3
Nsg4
(iNode
Node
p7
(dp8
g3
Nsg4
(iNode
Node
p9
(dp10
g3
Nsg4
(iNode
Node
p11
(dp12
g3
Nsg4
(iNode
Node
p13
(dp14
g3
Nsg4
(iNode
Node
p15
(dp16
g3
Nsg4
(iNode
Node
p17
(dp18
g3
Nsg4
(iNode
Node
p19
(dp20
g3
Nsg4
(iNode
Node
p21
(dp22
g3
Nsg4
(iNode
Node
p23
(dp24
g3
Nsg4
(iNode
Node
p25
(dp26
g3
Nsg4
(iNode
Node
p27
(dp28
g3
Nsg4
(iNode
Node
p29
(dp30
g3
Nsg4
(iNode
Node
p31
(dp32
g3
Nsg4
(iNode
Node
p33
(dp34
g3
Nsg4
(iNode
Node
p35
(dp36
g3
Nsg4
(iNode
Node
p37
(dp38
g3
Nsg4
(iNode
Node
p39
(dp40
g3
Nsg4
(iNode
Node
p41
(dp42
g3
Nsg4
(iNode
Node
p43
(dp44
g3
(dp45
S'POSITIVE'
p46
I584
sS'NEGATIVE'
p47
I703
ssg4
NsS'criteria'
p48
NsS'col'
p49
I-1
sS'rightBranch'
p50
Nsbsg48
I1
sg49
S'tones'
p51
sg50
(iNode
Node
p52
(dp53
g3
(dp54
g46
I12
ssg4
Nsg48
Nsg49
I-1
sg50
Nsbsbsg48
I1
sg49
S'lifetime'
p55
sg50
(iNode
Node
p56
(dp57
g3
(dp58
g46
I12
ssg4
Nsg48
Nsg49
I-1
sg50
Nsbsbsg48
I1
sg49
S'flow'
p59
sg50
(iNode
Node
p60
(dp61
g3
Nsg4
(iNode
Node
p62
(dp63
g3
Nsg4
(iNode
Node
p64
(dp65
g3
(dp66
g46
I19
ssg4
Nsg48
Nsg49
I-1
sg50
Nsbsg48
I1
sg49
S'gershon'
p67
sg50
(iNode
Node
p68
(dp69
g3
(dp70
g47
I1
ssg4
Nsg48
Nsg49
I-1
sg50
Nsbsbsg48
I1
sg49
S'comically'
p71
sg50
(iNode
Node
p72
(dp73
g3
(dp74
g47
I1
ssg4
Nsg48
Nsg49
I-1
sg50
Nsbsbsbsg48
I1
sg49
S'tracy'
p75
sg50
(iNode
Node
p76
(dp77
g3
(dp78
g46
I13
ssg4
Nsg48
Nsg49
I-1
sg50
Nsbsbsg48
I1
sg49
S'surroundings'
p79
sg50
(iNode
Node
p80
(dp81
g3
(dp82
g46
I13
ssg4
Nsg48
Nsg49
I-1
sg50
Nsbsbsg48
I1
sg49
S'construction'
p83
sg50
(iNode
Node
p84
(dp85
g3
(dp86
g46
I13
ssg4
Nsg48
Nsg49
I-1
sg50
Nsbsbsg48
I1
sg49
S'edition'
p87
sg50
(iNode
Node
p88
(dp89
g3
(dp90
g46
I13
ssg4
Nsg48
Nsg49
I-1
sg50
Nsbsbsg48
I1
sg49
S'NOTtypical'
p91
sg50
(iNode
Node
p92
(dp93
g3
(dp94
g46
I13
ssg4
Nsg48
Nsg49
I-1
sg50
Nsbsbsg48
I1
sg49
S'degenerates'
p95
sg50
(iNode
Node
p96
(dp97
g3
(dp98
g47
I14
ssg4
Nsg48
Nsg49
I-1
sg50
Nsbsbsg48
I1
sg49
S'sorely'
p99
sg50
(iNode
Node
p100
(dp101
g3
(dp102
g47
I15
ssg4
Nsg48
Nsg49
I-1
sg50
Nsbsbsg48
I1
sg49
S'liu'
p103
sg50
(iNode
Node
p104
(dp105
g3
(dp106
g47
I15
ssg4
Nsg48
Nsg49
I-1
sg50
Nsbsbsg48
I1
sg49
S'outsider'
p107
sg50
(iNode
Node
p108
(dp109
g3
(dp110
g46
I14
ssg4
Nsg48
Nsg49
I-1
sg50
Nsbsbsg48
I1
sg49
S'marginal'
p111
sg50
(iNode
Node
p112
(dp113
g3
(dp114
g47
I16
ssg4
Nsg48
Nsg49
I-1
sg50
Nsbsbsg48
I1
sg49
S'officially'
p115
sg50
(iNode
Node
p116
(dp117
g3
(dp118
g46
I15
ssg4
Nsg48
Nsg49
I-1
sg50
Nsbsbsg48
I1
sg49
S'incoherent'
p119
sg50
(iNode
Node
p120
(dp121
g3
(dp122
g47
I17
ssg4
Nsg48
Nsg49
I-1
sg50
Nsbsbsg48
I1
sg49
S'tobey'
p123
sg50
(iNode
Node
p124
(dp125
g3
(dp126
g46
I16
ssg4
Nsg48
Nsg49
I-1
sg50
Nsbsbsg48
I1
sg49
S'manipulation'
p127
sg50
(iNode
Node
p128
(dp129
g3
Nsg4
(iNode
Node
p130
(dp131
g3
(dp132
g46
I22
ssg4
Nsg48
Nsg49
I-1
sg50
Nsbsg48
I1
sg49
S'deception'
p133
sg50
(iNode
Node
p134
(dp135
g3
(dp136
g47
I1
ssg4
Nsg48
Nsg49
I-1
sg50
Nsbsbsbsg48
I1
sg49
S'astounding'
p137
sg50
(iNode
Node
p138
(dp139
g3
(dp140
g46
I18
ssg4
Nsg48
Nsg49
I-1
sg50
Nsbsbsg48
I1
sg49
S'ordered'
p141
sg50
(iNode
Node
p142
(dp143
g3
(dp144
g46
I19
ssg4
Nsg48
Nsg49
I-1
sg50
Nsbsbsg48
I1
sg49
S'fascination'
p145
sg50
(iNode
Node
p146
(dp147
g3
(dp148
g46
I21
ssg4
Nsg48
Nsg49
I-1
sg50
Nsbsb.