(iNode
Node
p1
(dp2
S'leafValues'
p3
NsS'leftBranch'
p4
(iNode
Node
p5
(dp6
g3
Nsg4
(iNode
Node
p7
(dp8
g3
Nsg4
(iNode
Node
p9
(dp10
g3
Nsg4
(iNode
Node
p11
(dp12
g3
Nsg4
(iNode
Node
p13
(dp14
g3
Nsg4
(iNode
Node
p15
(dp16
g3
Nsg4
(iNode
Node
p17
(dp18
g3
Nsg4
(iNode
Node
p19
(dp20
g3
Nsg4
(iNode
Node
p21
(dp22
g3
Nsg4
(iNode
Node
p23
(dp24
g3
Nsg4
(iNode
Node
p25
(dp26
g3
Nsg4
(iNode
Node
p27
(dp28
g3
Nsg4
(iNode
Node
p29
(dp30
g3
Nsg4
(iNode
Node
p31
(dp32
g3
Nsg4
(iNode
Node
p33
(dp34
g3
Nsg4
(iNode
Node
p35
(dp36
g3
Nsg4
(iNode
Node
p37
(dp38
g3
Nsg4
(iNode
Node
p39
(dp40
g3
Nsg4
(iNode
Node
p41
(dp42
g3
Nsg4
(iNode
Node
p43
(dp44
g3
(dp45
S'POSITIVE'
p46
I536
sS'NEGATIVE'
p47
I748
ssg4
NsS'criteria'
p48
NsS'col'
p49
I-1
sS'rightBranch'
p50
Nsbsg48
I1
sg49
S'loyalty'
p51
sg50
(iNode
Node
p52
(dp53
g3
(dp54
g46
I10
ssg4
Nsg48
Nsg49
I-1
sg50
Nsbsbsg48
I1
sg49
S'gump'
p55
sg50
(iNode
Node
p56
(dp57
g3
(dp58
g46
I11
ssg4
Nsg48
Nsg49
I-1
sg50
Nsbsbsg48
I1
sg49
S'smitten'
p59
sg50
(iNode
Node
p60
(dp61
g3
(dp62
g46
I11
ssg4
Nsg48
Nsg49
I-1
sg50
Nsbsbsg48
I1
sg49
S'lore'
p63
sg50
(iNode
Node
p64
(dp65
g3
(dp66
g46
I12
ssg4
Nsg48
Nsg49
I-1
sg50
Nsbsbsg48
I1
sg49
S'stealer'
p67
sg50
(iNode
Node
p68
(dp69
g3
(dp70
g46
I12
ssg4
Nsg48
Nsg49
I-1
sg50
Nsbsbsg48
I1
sg49
S'temper'
p71
sg50
(iNode
Node
p72
(dp73
g3
(dp74
g46
I12
ssg4
Nsg48
Nsg49
I-1
sg50
Nsbsbsg48
I1
sg49
S'financially'
p75
sg50
(iNode
Node
p76
(dp77
g3
(dp78
g46
I12
ssg4
Nsg48
Nsg49
I-1
sg50
Nsbsbsg48
I1
sg49
S'resort'
p79
sg50
(iNode
Node
p80
(dp81
g3
Nsg4
(iNode
Node
p82
(dp83
g3
Nsg4
(iNode
Node
p84
(dp85
g3
(dp86
g46
I19
ssg4
Nsg48
Nsg49
I-1
sg50
Nsbsg48
I1
sg49
S'discipline'
p87
sg50
(iNode
Node
p88
(dp89
g3
(dp90
g47
I1
ssg4
Nsg48
Nsg49
I-1
sg50
Nsbsbsg48
I1
sg49
S'exclaimed'
p91
sg50
(iNode
Node
p92
(dp93
g3
(dp94
g47
I1
ssg4
Nsg48
Nsg49
I-1
sg50
Nsbsbsbsg48
I1
sg49
S'NOTfamiliar'
p95
sg50
(iNode
Node
p96
(dp97
g3
Nsg4
(iNode
Node
p98
(dp99
g3
(dp100
g46
I17
ssg4
Nsg48
Nsg49
I-1
sg50
Nsbsg48
I1
sg49
S'rewarded'
p101
sg50
(iNode
Node
p102
(dp103
g3
(dp104
g47
I1
ssg4
Nsg48
Nsg49
I-1
sg50
Nsbsbsbsg48
I1
sg49
S'addresses'
p105
sg50
(iNode
Node
p106
(dp107
g3
(dp108
g46
I13
ssg4
Nsg48
Nsg49
I-1
sg50
Nsbsbsg48
I1
sg49
S'derek'
p109
sg50
(iNode
Node
p110
(dp111
g3
Nsg4
(iNode
Node
p112
(dp113
g3
(dp114
g46
I18
ssg4
Nsg48
Nsg49
I-1
sg50
Nsbsg48
I1
sg49
S'belloq'
p115
sg50
(iNode
Node
p116
(dp117
g3
(dp118
g47
I1
ssg4
Nsg48
Nsg49
I-1
sg50
Nsbsbsbsg48
I1
sg49
S'computers'
p119
sg50
(iNode
Node
p120
(dp121
g3
(dp122
g46
I14
ssg4
Nsg48
Nsg49
I-1
sg50
Nsbsbsg48
I1
sg49
S'risky'
p123
sg50
(iNode
Node
p124
(dp125
g3
Nsg4
(iNode
Node
p126
(dp127
g3
(dp128
g46
I19
ssg4
Nsg48
Nsg49
I-1
sg50
Nsbsg48
I1
sg49
S'quart'
p129
sg50
(iNode
Node
p130
(dp131
g3
(dp132
g47
I1
ssg4
Nsg48
Nsg49
I-1
sg50
Nsbsbsbsg48
I1
sg49
S'employer'
p133
sg50
(iNode
Node
p134
(dp135
g3
(dp136
g46
I16
ssg4
Nsg48
Nsg49
I-1
sg50
Nsbsbsg48
I1
sg49
S'ideals'
p137
sg50
(iNode
Node
p138
(dp139
g3
(dp140
g46
I16
ssg4
Nsg48
Nsg49
I-1
sg50
Nsbsbsg48
I1
sg49
S'astounding'
p141
sg50
(iNode
Node
p142
(dp143
g3
(dp144
g46
I17
ssg4
Nsg48
Nsg49
I-1
sg50
Nsbsbsg48
I1
sg49
S'piano'
p145
sg50
(iNode
Node
p146
(dp147
g3
(dp148
g46
I19
ssg4
Nsg48
Nsg49
I-1
sg50
Nsbsbsg48
I1
sg49
S'thread'
p149
sg50
(iNode
Node
p150
(dp151
g3
(dp152
g47
I19
ssg4
Nsg48
Nsg49
I-1
sg50
Nsbsbsg48
I1
sg49
S'atrocious'
p153
sg50
(iNode
Node
p154
(dp155
g3
(dp156
g47
I21
ssg4
Nsg48
Nsg49
I-1
sg50
Nsbsbsg48
I1
sg49
S'avoids'
p157
sg50
(iNode
Node
p158
(dp159
g3
(dp160
g46
I23
ssg4
Nsg48
Nsg49
I-1
sg50
Nsbsb.