(iNode
Node
p1
(dp2
S'leafValues'
p3
NsS'leftBranch'
p4
(iNode
Node
p5
(dp6
g3
Nsg4
(iNode
Node
p7
(dp8
g3
Nsg4
(iNode
Node
p9
(dp10
g3
Nsg4
(iNode
Node
p11
(dp12
g3
Nsg4
(iNode
Node
p13
(dp14
g3
Nsg4
(iNode
Node
p15
(dp16
g3
Nsg4
(iNode
Node
p17
(dp18
g3
Nsg4
(iNode
Node
p19
(dp20
g3
Nsg4
(iNode
Node
p21
(dp22
g3
Nsg4
(iNode
Node
p23
(dp24
g3
Nsg4
(iNode
Node
p25
(dp26
g3
Nsg4
(iNode
Node
p27
(dp28
g3
Nsg4
(iNode
Node
p29
(dp30
g3
Nsg4
(iNode
Node
p31
(dp32
g3
Nsg4
(iNode
Node
p33
(dp34
g3
Nsg4
(iNode
Node
p35
(dp36
g3
Nsg4
(iNode
Node
p37
(dp38
g3
Nsg4
(iNode
Node
p39
(dp40
g3
Nsg4
(iNode
Node
p41
(dp42
g3
Nsg4
(iNode
Node
p43
(dp44
g3
(dp45
S'POSITIVE'
p46
I595
sS'NEGATIVE'
p47
I688
ssg4
NsS'criteria'
p48
NsS'col'
p49
I-1
sS'rightBranch'
p50
Nsbsg48
I1
sg49
S'mpaa'
p51
sg50
(iNode
Node
p52
(dp53
g3
(dp54
g46
I12
ssg4
Nsg48
Nsg49
I-1
sg50
Nsbsbsg48
I1
sg49
S'crowded'
p55
sg50
(iNode
Node
p56
(dp57
g3
(dp58
g46
I12
ssg4
Nsg48
Nsg49
I-1
sg50
Nsbsbsg48
I1
sg49
S'dread'
p59
sg50
(iNode
Node
p60
(dp61
g3
(dp62
g46
I12
ssg4
Nsg48
Nsg49
I-1
sg50
Nsbsbsg48
I1
sg49
S'casually'
p63
sg50
(iNode
Node
p64
(dp65
g3
(dp66
g46
I12
ssg4
Nsg48
Nsg49
I-1
sg50
Nsbsbsg48
I1
sg49
S'mush'
p67
sg50
(iNode
Node
p68
(dp69
g3
(dp70
g47
I15
ssg4
Nsg48
Nsg49
I-1
sg50
Nsbsbsg48
I1
sg49
S'hudson'
p71
sg50
(iNode
Node
p72
(dp73
g3
(dp74
g47
I15
ssg4
Nsg48
Nsg49
I-1
sg50
Nsbsbsg48
I1
sg49
S'ugh'
p75
sg50
(iNode
Node
p76
(dp77
g3
(dp78
g47
I15
ssg4
Nsg48
Nsg49
I-1
sg50
Nsbsbsg48
I1
sg49
S'regard'
p79
sg50
(iNode
Node
p80
(dp81
g3
(dp82
g46
I13
ssg4
Nsg48
Nsg49
I-1
sg50
Nsbsbsg48
I1
sg49
S'incomprehensible'
p83
sg50
(iNode
Node
p84
(dp85
g3
(dp86
g47
I16
ssg4
Nsg48
Nsg49
I-1
sg50
Nsbsbsg48
I1
sg49
S'dragged'
p87
sg50
(iNode
Node
p88
(dp89
g3
(dp90
g47
I17
ssg4
Nsg48
Nsg49
I-1
sg50
Nsbsbsg48
I1
sg49
S'wondrous'
p91
sg50
(iNode
Node
p92
(dp93
g3
(dp94
g46
I14
ssg4
Nsg48
Nsg49
I-1
sg50
Nsbsbsg48
I1
sg49
S'delicious'
p95
sg50
(iNode
Node
p96
(dp97
g3
(dp98
g46
I14
ssg4
Nsg48
Nsg49
I-1
sg50
Nsbsbsg48
I1
sg49
S'melancholy'
p99
sg50
(iNode
Node
p100
(dp101
g3
(dp102
g46
I14
ssg4
Nsg48
Nsg49
I-1
sg50
Nsbsbsg48
I1
sg49
S'darker'
p103
sg50
(iNode
Node
p104
(dp105
g3
Nsg4
(iNode
Node
p106
(dp107
g3
(dp108
g46
I22
ssg4
Nsg48
Nsg49
I-1
sg50
Nsbsg48
I1
sg49
S'pimple'
p109
sg50
(iNode
Node
p110
(dp111
g3
(dp112
g47
I2
ssg4
Nsg48
Nsg49
I-1
sg50
Nsbsbsbsg48
I1
sg49
S'galore'
p113
sg50
(iNode
Node
p114
(dp115
g3
(dp116
g46
I15
ssg4
Nsg48
Nsg49
I-1
sg50
Nsbsbsg48
I1
sg49
S'unoriginal'
p117
sg50
(iNode
Node
p118
(dp119
g3
(dp120
g47
I17
ssg4
Nsg48
Nsg49
I-1
sg50
Nsbsbsg48
I1
sg49
S'schumacher'
p121
sg50
(iNode
Node
p122
(dp123
g3
(dp124
g47
I17
ssg4
Nsg48
Nsg49
I-1
sg50
Nsbsbsg48
I1
sg49
S'testament'
p125
sg50
(iNode
Node
p126
(dp127
g3
Nsg4
(iNode
Node
p128
(dp129
g3
Nsg4
(iNode
Node
p130
(dp131
g3
(dp132
g46
I25
ssg4
Nsg48
Nsg49
I-1
sg50
Nsbsg48
I1
sg49
S'cocaine'
p133
sg50
(iNode
Node
p134
(dp135
g3
(dp136
g47
I1
ssg4
Nsg48
Nsg49
I-1
sg50
Nsbsbsg48
I1
sg49
S'modest'
p137
sg50
(iNode
Node
p138
(dp139
g3
(dp140
g47
I1
ssg4
Nsg48
Nsg49
I-1
sg50
Nsbsbsbsg48
I1
sg49
S'christ'
p141
sg50
(iNode
Node
p142
(dp143
g3
(dp144
g46
I18
ssg4
Nsg48
Nsg49
I-1
sg50
Nsbsbsg48
I1
sg49
S'masterfully'
p145
sg50
(iNode
Node
p146
(dp147
g3
(dp148
g46
I18
ssg4
Nsg48
Nsg49
I-1
sg50
Nsbsb.